target datalayout = "e-m:e-p270:32:32-p271:32:32-p272:64:64-i64:64-i128:128-f80:128-n8:16:32:64-S128"
target triple = "x86_64-pc-linux-gnu"

%struct._typeobject = type { %struct.PyVarObject, ptr, i64, i64, ptr, i64, ptr, ptr, ptr, ptr, ptr, ptr, ptr, ptr, ptr, ptr, ptr, ptr, ptr, i64, ptr, ptr, ptr, ptr, i64, ptr, ptr, ptr, ptr, ptr, ptr, ptr, ptr, ptr, i64, ptr, ptr, ptr, ptr, ptr, ptr, ptr, ptr, ptr, ptr, ptr, i32, ptr, ptr, i8, i16 }
%struct.PyVarObject = type { %struct._object, i64 }
%struct._object = type { %union.anon.58, ptr }
%union.anon.58 = type { i64 }
%struct.validator = type { i32, i32 }
%struct.anon.59 = type { i32, i32 }

@PyUnicode_Type = external global %struct._typeobject, align 8
@PyExc_RecursionError = external global ptr, align 8
@.str.6 = private unnamed_addr constant [52 x i8] c"maximum recursion depth exceeded during compilation\00", align 1
@PyExc_TypeError = external global ptr, align 8
@_Py_NoneStruct = external global %struct._object, align 8
@PyBool_Type = external global %struct._typeobject, align 8
@PyLong_Type = external global %struct._typeobject, align 8
@PyFloat_Type = external global %struct._typeobject, align 8
@PyBytes_Type = external global %struct._typeobject, align 8
@PyComplex_Type = external global %struct._typeobject, align 8
@_Py_EllipsisObject = external global %struct._object, align 8
@PyTuple_Type = external global %struct._typeobject, align 8
@PyFrozenSet_Type = external global %struct._typeobject, align 8
@.str.72 = private unnamed_addr constant [36 x i8] c"got an invalid type in Constant: %s\00", align 1

; Function Attrs: alwaysinline nounwind uwtable
define internal i32 @_Py_IsImmortal(ptr noundef %0) #5 {
  %2 = alloca ptr, align 8
  store ptr %0, ptr %2, align 8, !tbaa !30
  %3 = load ptr, ptr %2, align 8, !tbaa !30
  %4 = getelementptr inbounds nuw %struct._object, ptr %3, i32 0, i32 0
  %5 = getelementptr inbounds nuw %struct.anon.59, ptr %4, i32 0, i32 0
  %6 = load i32, ptr %5, align 8, !tbaa !29
  %7 = icmp slt i32 %6, 0
  %8 = zext i1 %7 to i32
  ret i32 %8
}

; Function Attrs: inlinehint nounwind uwtable
define internal ptr @_Py_TYPE(ptr noundef %0) #2 {
  %2 = alloca ptr, align 8
  store ptr %0, ptr %2, align 8, !tbaa !30
  %3 = load ptr, ptr %2, align 8, !tbaa !30
  %4 = getelementptr inbounds nuw %struct._object, ptr %3, i32 0, i32 1
  %5 = load ptr, ptr %4, align 8, !tbaa !141
  ret ptr %5
}

; Function Attrs: alwaysinline nounwind uwtable
define internal void @Py_DECREF(ptr noundef %0) #5 {
  %2 = alloca ptr, align 8
  store ptr %0, ptr %2, align 8, !tbaa !30
  %3 = load ptr, ptr %2, align 8, !tbaa !30
  %4 = call i32 @_Py_IsImmortal(ptr noundef %3)
  %5 = icmp ne i32 %4, 0
  br i1 %5, label %6, label %7

6:                                                ; preds = %1
  br label %16

7:                                                ; preds = %1
  %8 = load ptr, ptr %2, align 8, !tbaa !30
  %9 = getelementptr inbounds nuw %struct._object, ptr %8, i32 0, i32 0
  %10 = getelementptr inbounds nuw %struct.anon.59, ptr %9, i32 0, i32 0
  %11 = load i32, ptr %10, align 8, !tbaa !29
  %12 = add i32 %11, -1
  store i32 %12, ptr %10, align 8, !tbaa !29
  %13 = icmp eq i32 %12, 0
  br i1 %13, label %14, label %16

14:                                               ; preds = %7
  %15 = load ptr, ptr %2, align 8, !tbaa !30
  call void @_Py_Dealloc(ptr noundef %15)
  br label %16

16:                                               ; preds = %6, %14, %7
  ret void
}

; Function Attrs: inlinehint nounwind uwtable
define internal i32 @Py_IS_TYPE(ptr noundef %0, ptr noundef %1) #2 {
  %3 = alloca ptr, align 8
  %4 = alloca ptr, align 8
  store ptr %0, ptr %3, align 8, !tbaa !30
  store ptr %1, ptr %4, align 8, !tbaa !52
  %5 = load ptr, ptr %3, align 8, !tbaa !30
  %6 = call ptr @_Py_TYPE(ptr noundef %5)
  %7 = load ptr, ptr %4, align 8, !tbaa !52
  %8 = icmp eq ptr %6, %7
  %9 = zext i1 %8 to i32
  ret i32 %9
}

; Function Attrs: nounwind uwtable
define internal i32 @validate_constant(ptr noundef %0, ptr noundef %1) #0 {
  %3 = alloca i32, align 4
  %4 = alloca ptr, align 8
  %5 = alloca ptr, align 8
  %6 = alloca ptr, align 8
  %7 = alloca i32, align 4
  %8 = alloca ptr, align 8
  store ptr %0, ptr %4, align 8, !tbaa !31
  store ptr %1, ptr %5, align 8, !tbaa !30
  %9 = load ptr, ptr %5, align 8, !tbaa !30
  %10 = icmp eq ptr %9, @_Py_NoneStruct
  br i1 %10, label %14, label %11

11:                                               ; preds = %2
  %12 = load ptr, ptr %5, align 8, !tbaa !30
  %13 = icmp eq ptr %12, @_Py_EllipsisObject
  br i1 %13, label %14, label %15

14:                                               ; preds = %11, %2
  store i32 1, ptr %3, align 4
  br label %113

15:                                               ; preds = %11
  %16 = load ptr, ptr %5, align 8, !tbaa !30
  %17 = call i32 @Py_IS_TYPE(ptr noundef %16, ptr noundef @PyLong_Type)
  %18 = icmp ne i32 %17, 0
  br i1 %18, label %39, label %19

19:                                               ; preds = %15
  %20 = load ptr, ptr %5, align 8, !tbaa !30
  %21 = call i32 @Py_IS_TYPE(ptr noundef %20, ptr noundef @PyFloat_Type)
  %22 = icmp ne i32 %21, 0
  br i1 %22, label %39, label %23

23:                                               ; preds = %19
  %24 = load ptr, ptr %5, align 8, !tbaa !30
  %25 = call i32 @Py_IS_TYPE(ptr noundef %24, ptr noundef @PyComplex_Type)
  %26 = icmp ne i32 %25, 0
  br i1 %26, label %39, label %27

27:                                               ; preds = %23
  %28 = load ptr, ptr %5, align 8, !tbaa !30
  %29 = call i32 @Py_IS_TYPE(ptr noundef %28, ptr noundef @PyBool_Type)
  %30 = icmp ne i32 %29, 0
  br i1 %30, label %39, label %31

31:                                               ; preds = %27
  %32 = load ptr, ptr %5, align 8, !tbaa !30
  %33 = call i32 @Py_IS_TYPE(ptr noundef %32, ptr noundef @PyUnicode_Type)
  %34 = icmp ne i32 %33, 0
  br i1 %34, label %39, label %35

35:                                               ; preds = %31
  %36 = load ptr, ptr %5, align 8, !tbaa !30
  %37 = call i32 @Py_IS_TYPE(ptr noundef %36, ptr noundef @PyBytes_Type)
  %38 = icmp ne i32 %37, 0
  br i1 %38, label %39, label %40

39:                                               ; preds = %35, %31, %27, %23, %19, %15
  store i32 1, ptr %3, align 4
  br label %113

40:                                               ; preds = %35
  %41 = load ptr, ptr %5, align 8, !tbaa !30
  %42 = call i32 @Py_IS_TYPE(ptr noundef %41, ptr noundef @PyTuple_Type)
  %43 = icmp ne i32 %42, 0
  br i1 %43, label %48, label %44

44:                                               ; preds = %40
  %45 = load ptr, ptr %5, align 8, !tbaa !30
  %46 = call i32 @Py_IS_TYPE(ptr noundef %45, ptr noundef @PyFrozenSet_Type)
  %47 = icmp ne i32 %46, 0
  br i1 %47, label %48, label %103

48:                                               ; preds = %44, %40
  br label %49

49:                                               ; preds = %48
  %50 = load ptr, ptr %4, align 8, !tbaa !31
  %51 = getelementptr inbounds nuw %struct.validator, ptr %50, i32 0, i32 0
  %52 = load i32, ptr %51, align 4, !tbaa !24
  %53 = add i32 %52, 1
  store i32 %53, ptr %51, align 4, !tbaa !24
  %54 = load ptr, ptr %4, align 8, !tbaa !31
  %55 = getelementptr inbounds nuw %struct.validator, ptr %54, i32 0, i32 1
  %56 = load i32, ptr %55, align 4, !tbaa !26
  %57 = icmp sgt i32 %53, %56
  br i1 %57, label %58, label %60

58:                                               ; preds = %49
  %59 = load ptr, ptr @PyExc_RecursionError, align 8, !tbaa !30
  call void @PyErr_SetString(ptr noundef %59, ptr noundef @.str.6)
  store i32 0, ptr %3, align 4
  br label %113

60:                                               ; preds = %49
  br label %61

61:                                               ; preds = %60
  call void @llvm.lifetime.start.p0(i64 8, ptr %6) #6
  %62 = load ptr, ptr %5, align 8, !tbaa !30
  %63 = call ptr @PyObject_GetIter(ptr noundef %62)
  store ptr %63, ptr %6, align 8, !tbaa !30
  %64 = load ptr, ptr %6, align 8, !tbaa !30
  %65 = icmp eq ptr %64, null
  br i1 %65, label %66, label %67

66:                                               ; preds = %61
  store i32 0, ptr %3, align 4
  store i32 1, ptr %7, align 4
  br label %102

67:                                               ; preds = %61
  br label %68

68:                                               ; preds = %92, %67
  br label %69

69:                                               ; preds = %68
  call void @llvm.lifetime.start.p0(i64 8, ptr %8) #6
  %70 = load ptr, ptr %6, align 8, !tbaa !30
  %71 = call ptr @PyIter_Next(ptr noundef %70)
  store ptr %71, ptr %8, align 8, !tbaa !30
  %72 = load ptr, ptr %8, align 8, !tbaa !30
  %73 = icmp eq ptr %72, null
  br i1 %73, label %74, label %80

74:                                               ; preds = %69
  %75 = call ptr @PyErr_Occurred()
  %76 = icmp ne ptr %75, null
  br i1 %76, label %77, label %79

77:                                               ; preds = %74
  %78 = load ptr, ptr %6, align 8, !tbaa !30
  call void @Py_DECREF(ptr noundef %78)
  store i32 0, ptr %3, align 4
  store i32 1, ptr %7, align 4
  br label %90

79:                                               ; preds = %74
  store i32 5, ptr %7, align 4
  br label %90

80:                                               ; preds = %69
  %81 = load ptr, ptr %4, align 8, !tbaa !31
  %82 = load ptr, ptr %8, align 8, !tbaa !30
  %83 = call i32 @validate_constant(ptr noundef %81, ptr noundef %82)
  %84 = icmp ne i32 %83, 0
  br i1 %84, label %88, label %85

85:                                               ; preds = %80
  %86 = load ptr, ptr %6, align 8, !tbaa !30
  call void @Py_DECREF(ptr noundef %86)
  %87 = load ptr, ptr %8, align 8, !tbaa !30
  call void @Py_DECREF(ptr noundef %87)
  store i32 0, ptr %3, align 4
  store i32 1, ptr %7, align 4
  br label %90

88:                                               ; preds = %80
  %89 = load ptr, ptr %8, align 8, !tbaa !30
  call void @Py_DECREF(ptr noundef %89)
  store i32 0, ptr %7, align 4
  br label %90

90:                                               ; preds = %88, %85, %79, %77
  call void @llvm.lifetime.end.p0(i64 8, ptr %8) #6
  %91 = load i32, ptr %7, align 4
  switch i32 %91, label %102 [
    i32 0, label %92
    i32 5, label %93
  ]

92:                                               ; preds = %90
  br label %68

93:                                               ; preds = %90
  %94 = load ptr, ptr %6, align 8, !tbaa !30
  call void @Py_DECREF(ptr noundef %94)
  br label %95

95:                                               ; preds = %93
  %96 = load ptr, ptr %4, align 8, !tbaa !31
  %97 = getelementptr inbounds nuw %struct.validator, ptr %96, i32 0, i32 0
  %98 = load i32, ptr %97, align 4, !tbaa !24
  %99 = add i32 %98, -1
  store i32 %99, ptr %97, align 4, !tbaa !24
  br label %100

100:                                              ; preds = %95
  br label %101

101:                                              ; preds = %100
  store i32 1, ptr %3, align 4
  store i32 1, ptr %7, align 4
  br label %102

102:                                              ; preds = %101, %90, %66
  call void @llvm.lifetime.end.p0(i64 8, ptr %6) #6
  br label %113

103:                                              ; preds = %44
  %104 = call ptr @PyErr_Occurred()
  %105 = icmp ne ptr %104, null
  br i1 %105, label %112, label %106

106:                                              ; preds = %103
  %107 = load ptr, ptr @PyExc_TypeError, align 8, !tbaa !30
  %108 = load ptr, ptr %5, align 8, !tbaa !30
  %109 = call ptr @_Py_TYPE(ptr noundef %108)
  %110 = call ptr @_PyType_Name(ptr noundef %109)
  %111 = call ptr (ptr, ptr, ...) @PyErr_Format(ptr noundef %107, ptr noundef @.str.72, ptr noundef %110)
  br label %112

112:                                              ; preds = %106, %103
  store i32 0, ptr %3, align 4
  br label %113

113:                                              ; preds = %112, %102, %58, %39, %14
  %114 = load i32, ptr %3, align 4
  ret i32 %114
}