; Function Attrs: nounwind uwtable
define internal fastcc noundef range(i32 0, 2) i32 @validate_constant(ptr noundef nonnull captures(none) %0, ptr noundef %1) unnamed_addr #0 {
  %3 = icmp eq ptr %1, @_Py_NoneStruct
  %4 = icmp eq ptr %1, @_Py_EllipsisObject
  %or.cond = or i1 %3, %4
  br i1 %or.cond, label %Py_DECREF.exit.thread, label %5

5:                                                ; preds = %2
  %6 = getelementptr i8, ptr %1, i64 8
  %.val59 = load ptr, ptr %6, align 8, !tbaa !80
  %.not = icmp eq ptr %.val59, @PyLong_Type
  %.not63 = icmp eq ptr %.val59, @PyFloat_Type
  %or.cond70 = or i1 %.not, %.not63
  %.not64 = icmp eq ptr %.val59, @PyComplex_Type
  %or.cond71 = or i1 %.not64, %or.cond70
  %.not65 = icmp eq ptr %.val59, @PyBool_Type
  %or.cond72 = or i1 %.not65, %or.cond71
  %.not66 = icmp eq ptr %.val59, @PyUnicode_Type
  %or.cond73 = or i1 %.not66, %or.cond72
  %.not67 = icmp eq ptr %.val59, @PyBytes_Type
  %or.cond74 = or i1 %.not67, %or.cond73
  br i1 %or.cond74, label %Py_DECREF.exit.thread, label %7

7:                                                ; preds = %5
  %.not68 = icmp eq ptr %.val59, @PyTuple_Type
  %.not69 = icmp eq ptr %.val59, @PyFrozenSet_Type
  %or.cond75 = or i1 %.not68, %.not69
  br i1 %or.cond75, label %8, label %56

8:                                                ; preds = %7
  %9 = load i32, ptr %0, align 4, !tbaa !21
  %10 = add i32 %9, 1
  store i32 %10, ptr %0, align 4, !tbaa !21
  %11 = getelementptr inbounds nuw i8, ptr %0, i64 4
  %12 = load i32, ptr %11, align 4, !tbaa !23
  %13 = icmp sgt i32 %10, %12
  br i1 %13, label %14, label %16

14:                                               ; preds = %8
  %15 = load ptr, ptr @PyExc_RecursionError, align 8, !tbaa !33
  tail call void @PyErr_SetString(ptr noundef %15, ptr noundef nonnull @.str.6) #5
  br label %Py_DECREF.exit.thread

16:                                               ; preds = %8
  %17 = tail call ptr @PyObject_GetIter(ptr noundef %1) #5
  %18 = icmp eq ptr %17, null
  br i1 %18, label %Py_DECREF.exit.thread, label %.preheader

.preheader:                                       ; preds = %16
  %19 = tail call ptr @PyIter_Next(ptr noundef nonnull %17) #5
  %20 = icmp eq ptr %19, null
  br i1 %20, label %._crit_edge, label %.lr.ph

._crit_edge:                                      ; preds = %Py_DECREF.exit, %.preheader
  %21 = tail call ptr @PyErr_Occurred() #5
  %.not39 = icmp eq ptr %21, null
  %22 = load i32, ptr %17, align 8, !tbaa !26
  %.not.i46 = icmp sgt i32 %22, -1
  br i1 %.not39, label %49, label %23

23:                                               ; preds = %._crit_edge
  br i1 %.not.i46, label %24, label %Py_DECREF.exit.thread

24:                                               ; preds = %23
  %25 = add nsw i32 %22, -1
  store i32 %25, ptr %17, align 8, !tbaa !26
  %26 = icmp eq i32 %25, 0
  br i1 %26, label %27, label %Py_DECREF.exit.thread

27:                                               ; preds = %24
  tail call void @_Py_Dealloc(ptr noundef nonnull %17) #5
  br label %Py_DECREF.exit.thread

.lr.ph:                                           ; preds = %.preheader, %Py_DECREF.exit
  %28 = phi ptr [ %47, %Py_DECREF.exit ], [ %19, %.preheader ]
  %29 = tail call fastcc i32 @validate_constant(ptr noundef %0, ptr noundef nonnull %28)
  %.not38 = icmp eq i32 %29, 0
  br i1 %.not38, label %30, label %41

30:                                               ; preds = %.lr.ph
  %31 = load i32, ptr %17, align 8, !tbaa !26
  %.not.i40 = icmp sgt i32 %31, -1
  br i1 %.not.i40, label %32, label %Py_DECREF.exit41

32:                                               ; preds = %30
  %33 = add nsw i32 %31, -1
  store i32 %33, ptr %17, align 8, !tbaa !26
  %34 = icmp eq i32 %33, 0
  br i1 %34, label %35, label %Py_DECREF.exit41

35:                                               ; preds = %32
  tail call void @_Py_Dealloc(ptr noundef nonnull %17) #5
  br label %Py_DECREF.exit41

Py_DECREF.exit41:                                 ; preds = %30, %32, %35
  %36 = load i32, ptr %28, align 8, !tbaa !26
  %.not.i42 = icmp sgt i32 %36, -1
  br i1 %.not.i42, label %37, label %Py_DECREF.exit.thread

37:                                               ; preds = %Py_DECREF.exit41
  %38 = add nsw i32 %36, -1
  store i32 %38, ptr %28, align 8, !tbaa !26
  %39 = icmp eq i32 %38, 0
  br i1 %39, label %40, label %Py_DECREF.exit.thread

40:                                               ; preds = %37
  tail call void @_Py_Dealloc(ptr noundef nonnull %28) #5
  br label %Py_DECREF.exit.thread

41:                                               ; preds = %.lr.ph
  %42 = load i32, ptr %28, align 8, !tbaa !26
  %.not.i44 = icmp sgt i32 %42, -1
  br i1 %.not.i44, label %43, label %Py_DECREF.exit

43:                                               ; preds = %41
  %44 = add nsw i32 %42, -1
  store i32 %44, ptr %28, align 8, !tbaa !26
  %45 = icmp eq i32 %44, 0
  br i1 %45, label %46, label %Py_DECREF.exit

46:                                               ; preds = %43
  tail call void @_Py_Dealloc(ptr noundef nonnull %28) #5
  br label %Py_DECREF.exit

Py_DECREF.exit:                                   ; preds = %46, %43, %41
  %47 = tail call ptr @PyIter_Next(ptr noundef nonnull %17) #5
  %48 = icmp eq ptr %47, null
  br i1 %48, label %._crit_edge, label %.lr.ph

49:                                               ; preds = %._crit_edge
  br i1 %.not.i46, label %50, label %Py_DECREF.exit47

50:                                               ; preds = %49
  %51 = add nsw i32 %22, -1
  store i32 %51, ptr %17, align 8, !tbaa !26
  %52 = icmp eq i32 %51, 0
  br i1 %52, label %53, label %Py_DECREF.exit47

53:                                               ; preds = %50
  tail call void @_Py_Dealloc(ptr noundef nonnull %17) #5
  br label %Py_DECREF.exit47

Py_DECREF.exit47:                                 ; preds = %49, %50, %53
  %54 = load i32, ptr %0, align 4, !tbaa !21
  %55 = add i32 %54, -1
  store i32 %55, ptr %0, align 4, !tbaa !21
  br label %Py_DECREF.exit.thread

56:                                               ; preds = %7
  %57 = tail call ptr @PyErr_Occurred() #5
  %.not37 = icmp eq ptr %57, null
  br i1 %.not37, label %58, label %Py_DECREF.exit.thread

58:                                               ; preds = %56
  %59 = load ptr, ptr @PyExc_TypeError, align 8, !tbaa !33
  %.val = load ptr, ptr %6, align 8, !tbaa !80
  %60 = tail call ptr @_PyType_Name(ptr noundef %.val) #5
  %61 = tail call ptr (ptr, ptr, ...) @PyErr_Format(ptr noundef %59, ptr noundef nonnull @.str.72, ptr noundef %60) #5
  br label %Py_DECREF.exit.thread

Py_DECREF.exit.thread:                            ; preds = %40, %37, %Py_DECREF.exit41, %27, %24, %23, %56, %58, %Py_DECREF.exit47, %16, %5, %2, %14
  %.0 = phi i32 [ 0, %14 ], [ 1, %2 ], [ 1, %5 ], [ 1, %Py_DECREF.exit47 ], [ 0, %16 ], [ 0, %58 ], [ 0, %56 ], [ 0, %23 ], [ 0, %24 ], [ 0, %27 ], [ 0, %Py_DECREF.exit41 ], [ 0, %37 ], [ 0, %40 ]
  ret i32 %.0
}